; ModuleID = '10/1375.c'
source_filename = "10/1375.c"
target datalayout = "e-m:e-p270:32:32-p271:32:32-p272:64:64-i64:64-f80:128-n8:16:32:64-S128"
target triple = "x86_64-pc-linux-gnu"

@.str = private unnamed_addr constant [3 x i8] c"%d\00", align 1
@.str.1 = private unnamed_addr constant [4 x i8] c"%d\0A\00", align 1

; Function Attrs: noinline nounwind uwtable
define dso_local void @main() #0 {
  %1 = alloca i32, align 4
  %2 = alloca [25 x i32], align 16
  %3 = alloca i32, align 4
  %4 = alloca i32, align 4
  %5 = call i32 (i8*, ...) @__isoc99_scanf(i8* getelementptr inbounds ([3 x i8], [3 x i8]* @.str, i64 0, i64 0), i32* %1)
  store i32 0, i32* %3, align 4
  br label %6

6:                                                ; preds = %15, %0
  %7 = load i32, i32* %3, align 4
  %8 = load i32, i32* %1, align 4
  %9 = icmp slt i32 %7, %8
  br i1 %9, label %10, label %18

10:                                               ; preds = %6
  %11 = load i32, i32* %3, align 4
  %12 = sext i32 %11 to i64
  %13 = getelementptr inbounds [25 x i32], [25 x i32]* %2, i64 0, i64 %12
  %14 = call i32 (i8*, ...) @__isoc99_scanf(i8* getelementptr inbounds ([3 x i8], [3 x i8]* @.str, i64 0, i64 0), i32* %13)
  br label %15

15:                                               ; preds = %10
  %16 = load i32, i32* %3, align 4
  %17 = add nsw i32 %16, 1
  store i32 %17, i32* %3, align 4
  br label %6

18:                                               ; preds = %6
  %19 = getelementptr inbounds [25 x i32], [25 x i32]* %2, i64 0, i64 0
  %20 = load i32, i32* %1, align 4
  %21 = call i32 @max(i32* %19, i32 %20, i32 0, i32 999999)
  store i32 %21, i32* %4, align 4
  %22 = load i32, i32* %4, align 4
  %23 = call i32 (i8*, ...) @printf(i8* getelementptr inbounds ([4 x i8], [4 x i8]* @.str.1, i64 0, i64 0), i32 %22)
  ret void
}

declare dso_local i32 @__isoc99_scanf(i8*, ...) #1

; Function Attrs: noinline nounwind uwtable
define dso_local i32 @max(i32* %0, i32 %1, i32 %2, i32 %3) #0 {
  %5 = alloca i32*, align 8
  %6 = alloca i32, align 4
  %7 = alloca i32, align 4
  %8 = alloca i32, align 4
  %9 = alloca i32, align 4
  %10 = alloca i32, align 4
  %11 = alloca i32, align 4
  %12 = alloca i32, align 4
  store i32* %0, i32** %5, align 8
  store i32 %1, i32* %6, align 4
  store i32 %2, i32* %7, align 4
  store i32 %3, i32* %8, align 4
  store i32 0, i32* %9, align 4
  %13 = load i32*, i32** %5, align 8
  %14 = load i32, i32* %7, align 4
  %15 = sext i32 %14 to i64
  %16 = getelementptr inbounds i32, i32* %13, i64 %15
  %17 = load i32, i32* %16, align 4
  store i32 %17, i32* %11, align 4
  %18 = load i32, i32* %7, align 4
  %19 = load i32, i32* %6, align 4
  %20 = sub nsw i32 %19, 1
  %21 = icmp eq i32 %18, %20
  br i1 %21, label %22, label %33

22:                                               ; preds = %4
  %23 = load i32*, i32** %5, align 8
  %24 = load i32, i32* %7, align 4
  %25 = sext i32 %24 to i64
  %26 = getelementptr inbounds i32, i32* %23, i64 %25
  %27 = load i32, i32* %26, align 4
  %28 = load i32, i32* %8, align 4
  %29 = icmp sle i32 %27, %28
  br i1 %29, label %30, label %31

30:                                               ; preds = %22
  store i32 1, i32* %12, align 4
  br label %32

31:                                               ; preds = %22
  store i32 0, i32* %12, align 4
  br label %32

32:                                               ; preds = %31, %30
  br label %76

33:                                               ; preds = %4
  %34 = load i32*, i32** %5, align 8
  %35 = load i32, i32* %7, align 4
  %36 = sext i32 %35 to i64
  %37 = getelementptr inbounds i32, i32* %34, i64 %36
  %38 = load i32, i32* %37, align 4
  %39 = load i32, i32* %8, align 4
  %40 = icmp sle i32 %38, %39
  br i1 %40, label %41, label %68

41:                                               ; preds = %33
  %42 = load i32*, i32** %5, align 8
  %43 = load i32, i32* %6, align 4
  %44 = load i32, i32* %7, align 4
  %45 = add nsw i32 %44, 1
  %46 = load i32, i32* %8, align 4
  %47 = call i32 @max(i32* %42, i32 %43, i32 %45, i32 %46)
  store i32 %47, i32* %10, align 4
  %48 = load i32*, i32** %5, align 8
  %49 = load i32, i32* %7, align 4
  %50 = sext i32 %49 to i64
  %51 = getelementptr inbounds i32, i32* %48, i64 %50
  %52 = load i32, i32* %51, align 4
  store i32 %52, i32* %8, align 4
  %53 = load i32*, i32** %5, align 8
  %54 = load i32, i32* %6, align 4
  %55 = load i32, i32* %7, align 4
  %56 = add nsw i32 %55, 1
  %57 = load i32, i32* %8, align 4
  %58 = call i32 @max(i32* %53, i32 %54, i32 %56, i32 %57)
  %59 = add nsw i32 1, %58
  store i32 %59, i32* %9, align 4
  %60 = load i32, i32* %9, align 4
  %61 = load i32, i32* %10, align 4
  %62 = icmp sgt i32 %60, %61
  br i1 %62, label %63, label %65

63:                                               ; preds = %41
  %64 = load i32, i32* %9, align 4
  store i32 %64, i32* %12, align 4
  br label %67

65:                                               ; preds = %41
  %66 = load i32, i32* %10, align 4
  store i32 %66, i32* %12, align 4
  br label %67

67:                                               ; preds = %65, %63
  br label %75

68:                                               ; preds = %33
  %69 = load i32*, i32** %5, align 8
  %70 = load i32, i32* %6, align 4
  %71 = load i32, i32* %7, align 4
  %72 = add nsw i32 %71, 1
  %73 = load i32, i32* %8, align 4
  %74 = call i32 @max(i32* %69, i32 %70, i32 %72, i32 %73)
  store i32 %74, i32* %12, align 4
  br label %75

75:                                               ; preds = %68, %67
  br label %76

76:                                               ; preds = %75, %32
  %77 = load i32, i32* %12, align 4
  ret i32 %77
}

declare dso_local i32 @printf(i8*, ...) #1


!llvm.module.flags = !{!0}
!llvm.ident = !{!1}

!0 = !{i32 1, !"wchar_size", i32 4}
!1 = !{!"clang version 10.0.0-4ubuntu1 "}
