; ModuleID = 'source-C-CXX/9/1375.c'
source_filename = "source-C-CXX/9/1375.c"
target datalayout = "e-m:e-p270:32:32-p271:32:32-p272:64:64-i64:64-f80:128-n8:16:32:64-S128"
target triple = "x86_64-pc-linux-gnu"

@.str = private unnamed_addr constant [3 x i8] c"%d\00", align 1
@.str.1 = private unnamed_addr constant [4 x i8] c"%d\0A\00", align 1

; Function Attrs: nofree nounwind sspstrong uwtable
define dso_local void @main() local_unnamed_addr #0 {
  %1 = alloca i32, align 4
  %2 = alloca [25 x i32], align 16
  %3 = bitcast i32* %1 to i8*
  call void @llvm.lifetime.start.p0i8(i64 4, i8* nonnull %3) #4
  %4 = bitcast [25 x i32]* %2 to i8*
  call void @llvm.lifetime.start.p0i8(i64 100, i8* nonnull %4) #4
  %5 = call i32 (i8*, ...) @__isoc99_scanf(i8* getelementptr inbounds ([3 x i8], [3 x i8]* @.str, i64 0, i64 0), i32* nonnull %1)
  %6 = load i32, i32* %1, align 4, !tbaa !5
  %7 = icmp sgt i32 %6, 0
  br i1 %7, label %8, label %16

8:                                                ; preds = %0, %8
  %9 = phi i64 [ %12, %8 ], [ 0, %0 ]
  %10 = getelementptr inbounds [25 x i32], [25 x i32]* %2, i64 0, i64 %9
  %11 = call i32 (i8*, ...) @__isoc99_scanf(i8* getelementptr inbounds ([3 x i8], [3 x i8]* @.str, i64 0, i64 0), i32* nonnull %10)
  %12 = add nuw nsw i64 %9, 1
  %13 = load i32, i32* %1, align 4, !tbaa !5
  %14 = sext i32 %13 to i64
  %15 = icmp slt i64 %12, %14
  br i1 %15, label %8, label %16, !llvm.loop !9

16:                                               ; preds = %8, %0
  %17 = phi i32 [ %6, %0 ], [ %13, %8 ]
  %18 = getelementptr inbounds [25 x i32], [25 x i32]* %2, i64 0, i64 0
  %19 = call i32 @max(i32* nonnull %18, i32 %17, i32 0, i32 999999)
  %20 = call i32 (i8*, ...) @printf(i8* nonnull dereferenceable(1) getelementptr inbounds ([4 x i8], [4 x i8]* @.str.1, i64 0, i64 0), i32 %19)
  call void @llvm.lifetime.end.p0i8(i64 100, i8* nonnull %4) #4
  call void @llvm.lifetime.end.p0i8(i64 4, i8* nonnull %3) #4
  ret void
}

; Function Attrs: argmemonly mustprogress nofree nosync nounwind willreturn
declare void @llvm.lifetime.start.p0i8(i64 immarg, i8* nocapture) #1

; Function Attrs: nofree nounwind
declare noundef i32 @__isoc99_scanf(i8* nocapture noundef readonly, ...) local_unnamed_addr #2

; Function Attrs: nofree nosync nounwind readonly sspstrong uwtable
define dso_local i32 @max(i32* %0, i32 %1, i32 %2, i32 %3) local_unnamed_addr #3 {
  %5 = add nsw i32 %1, -1
  %6 = sext i32 %2 to i64
  %7 = getelementptr inbounds i32, i32* %0, i64 %6
  %8 = icmp eq i32 %5, %2
  br i1 %8, label %9, label %14

9:                                                ; preds = %29, %4
  %10 = phi i32* [ %7, %4 ], [ %31, %29 ]
  %11 = load i32, i32* %10, align 4, !tbaa !5
  %12 = icmp sle i32 %11, %3
  %13 = zext i1 %12 to i32
  br label %19

14:                                               ; preds = %4, %29
  %15 = phi i64 [ %30, %29 ], [ %6, %4 ]
  %16 = phi i32* [ %31, %29 ], [ %7, %4 ]
  %17 = load i32, i32* %16, align 4, !tbaa !5
  %18 = icmp sgt i32 %17, %3
  br i1 %18, label %29, label %21

19:                                               ; preds = %9, %21
  %20 = phi i32 [ %28, %21 ], [ %13, %9 ]
  ret i32 %20

21:                                               ; preds = %14
  %22 = trunc i64 %15 to i32
  %23 = add nsw i32 %22, 1
  %24 = tail call i32 @max(i32* nonnull %0, i32 %1, i32 %23, i32 %3)
  %25 = tail call i32 @max(i32* nonnull %0, i32 %1, i32 %23, i32 %17)
  %26 = icmp slt i32 %25, %24
  %27 = add nsw i32 %25, 1
  %28 = select i1 %26, i32 %24, i32 %27
  br label %19

29:                                               ; preds = %14
  %30 = add nsw i64 %15, 1
  %31 = getelementptr inbounds i32, i32* %0, i64 %30
  %32 = trunc i64 %30 to i32
  %33 = icmp eq i32 %5, %32
  br i1 %33, label %9, label %14
}

; Function Attrs: nofree nounwind
declare noundef i32 @printf(i8* nocapture noundef readonly, ...) local_unnamed_addr #2

; Function Attrs: argmemonly mustprogress nofree nosync nounwind willreturn
declare void @llvm.lifetime.end.p0i8(i64 immarg, i8* nocapture) #1


!llvm.module.flags = !{!0, !1, !2, !3}
!llvm.ident = !{!4}

!0 = !{i32 1, !"wchar_size", i32 4}
!1 = !{i32 7, !"PIC Level", i32 2}
!2 = !{i32 7, !"PIE Level", i32 2}
!3 = !{i32 7, !"uwtable", i32 1}
!4 = !{!"clang version 13.0.0"}
!5 = !{!6, !6, i64 0}
!6 = !{!"int", !7, i64 0}
!7 = !{!"omnipotent char", !8, i64 0}
!8 = !{!"Simple C/C++ TBAA"}
!9 = distinct !{!9, !10}
!10 = !{!"llvm.loop.mustprogress"}
